target datalayout = "e-m:e-p270:32:32-p271:32:32-p272:64:64-i64:64-i128:128-f80:128-n8:16:32:64-S128"
target triple = "x86_64-pc-linux-gnu"

%struct.Curl_easy = type { i32, i64, i64, ptr, %struct.Curl_llist_node, %struct.Curl_llist_node, i32, i32, %struct.Curl_message, %struct.easy_pollset, %struct.Names, ptr, ptr, ptr, ptr, %struct.SingleRequest, %struct.UserDefined, ptr, ptr, ptr, %struct.Progress, %struct.UrlState, ptr, %struct.PureInfo, %struct.curl_tlssessioninfo }
%struct.Curl_llist_node = type { ptr, ptr, ptr, ptr }
%struct.Curl_message = type { %struct.Curl_llist_node, %struct.CURLMsg }
%struct.CURLMsg = type { i32, ptr, %union.anon }
%union.anon = type { ptr }
%struct.easy_pollset = type { [5 x i32], i32, [5 x i8] }
%struct.Names = type { ptr, i32 }
%struct.SingleRequest = type <{ i64, i64, i64, i64, %struct.curltime, i32, i32, i32, i32, i64, i32, i32, i8, i8, [2 x i8], i32, ptr, ptr, %struct.bufq, i64, i64, ptr, ptr, %union.anon.0, ptr, i8, i32, [3 x i8] }>
%struct.curltime = type { i64, i32 }
%struct.bufq = type { ptr, ptr, ptr, ptr, i64, i64, i64, i32 }
%union.anon.0 = type { ptr }
%struct.UserDefined = type <{ ptr, ptr, ptr, ptr, ptr, ptr, i64, i64, i64, ptr, ptr, i64, ptr, ptr, ptr, ptr, ptr, ptr, ptr, ptr, ptr, ptr, ptr, ptr, ptr, ptr, ptr, ptr, ptr, ptr, ptr, ptr, ptr, ptr, ptr, i64, i64, i64, i64, i64, i64, i64, i64, i64, ptr, ptr, %struct.curl_mimepart, ptr, ptr, ptr, i64, %struct.ssl_config_data, %struct.ssl_config_data, ptr, i16, i8, i8, %struct.ssl_general_config, i32, i32, i32, [4 x i8], ptr, ptr, i64, i32, i8, i8, i8, i8, ptr, ptr, ptr, i32, [4 x i8], [74 x ptr], [8 x ptr], i32, i32, i32, [4 x i8], ptr, i32, [4 x i8], ptr, ptr, ptr, ptr, ptr, i32, i32, i32, i32, i32, i32, i32, i32, i64, ptr, ptr, i64, ptr, i64, ptr, ptr, ptr, ptr, i32, i16, i16, i16, i8, i8, i8, i8, i8, i8, i8, i8, i64, [6 x i8] }>
%struct.curl_mimepart = type { ptr, ptr, i32, i32, ptr, ptr, ptr, ptr, ptr, ptr, ptr, ptr, ptr, ptr, ptr, i64, %struct.mime_state, ptr, %struct.mime_encoder_state, i64 }
%struct.mime_state = type { i32, ptr, i64 }
%struct.mime_encoder_state = type { i64, i64, i64, [256 x i8] }
%struct.ssl_config_data = type { %struct.ssl_primary_config, i64, ptr, ptr, ptr, ptr, ptr, ptr, ptr, i16 }
%struct.ssl_primary_config = type { ptr, ptr, ptr, ptr, ptr, ptr, ptr, ptr, ptr, ptr, ptr, ptr, ptr, ptr, i8, i32, i8, i8 }
%struct.ssl_general_config = type { i32 }
%struct.Progress = type { i64, %struct.pgrs_dir, %struct.pgrs_dir, i64, i64, i32, i32, i64, i64, i64, i64, i64, i64, i64, i64, i64, %struct.curltime, %struct.curltime, %struct.curltime, %struct.curltime, %struct.curltime, [6 x i64], [6 x %struct.curltime], i32, i8 }
%struct.pgrs_dir = type { i64, i64, i64, %struct.pgrs_measure }
%struct.pgrs_measure = type { %struct.curltime, i64 }
%struct.UrlState = type { %struct.curltime, i64, i64, %struct.dynbuf, ptr, i64, ptr, i32, i32, i32, ptr, i32, i64, i32, ptr, %struct.digestdata, %struct.digestdata, %struct.auth, %struct.auth, %struct.Curl_async, ptr, i8, %struct.curltime, %struct.Curl_tree, %struct.Curl_llist, [15 x %struct.time_node], ptr, ptr, i64, i64, i64, i64, [32 x i8], i64, ptr, ptr, ptr, %struct.urlpieces, ptr, ptr, ptr, ptr, ptr, i64, %struct.dynbuf, %struct.Curl_llist, [2 x %struct.curl_header], ptr, i32, ptr, ptr, %struct.store_netrc, %struct.dynamically_allocated_data, i8, i8, i8, i8, i32 }
%struct.digestdata = type { ptr, ptr, ptr, ptr, ptr, ptr, i32, i8, i8 }
%struct.auth = type { i64, i64, i64, i8 }
%struct.Curl_async = type { ptr, ptr, ptr, ptr, i32, i32, i8 }
%struct.Curl_tree = type { ptr, ptr, ptr, ptr, %struct.curltime, ptr }
%struct.time_node = type { %struct.Curl_llist_node, %struct.curltime, i32 }
%struct.urlpieces = type { ptr, ptr, ptr, ptr, ptr, ptr, ptr, ptr }
%struct.dynbuf = type { ptr, i64, i64, i64 }
%struct.Curl_llist = type { ptr, ptr, ptr, i64 }
%struct.curl_header = type { ptr, ptr, i64, i64, i32, ptr }
%struct.store_netrc = type { %struct.dynbuf, ptr, i8 }
%struct.dynamically_allocated_data = type { ptr, ptr, ptr, ptr, ptr, ptr, ptr, ptr, ptr, ptr, ptr, ptr, ptr, ptr }
%struct.PureInfo = type { i32, i32, i32, i64, i64, i64, i64, i64, i64, i64, ptr, ptr, i64, i32, %struct.ip_quadruple, i32, ptr, i32, %struct.curl_certinfo, i32, i8 }
%struct.ip_quadruple = type { [46 x i8], [46 x i8], i32, i32 }
%struct.curl_certinfo = type { i32, ptr }
%struct.curl_tlssessioninfo = type { i32, ptr }
%struct.curl_trc_feat = type { ptr, i32 }

@.str.144 = private unnamed_addr constant [27 x i8] c"Maximum file size exceeded\00", align 1
@.str.145 = private unnamed_addr constant [28 x i8] c"setting size while ignoring\00", align 1

; Function Attrs: nounwind uwtable
define internal i32 @http_size(ptr noundef %0) #0 {
  %2 = alloca i32, align 4
  %3 = alloca ptr, align 8
  %4 = alloca ptr, align 8
  %5 = alloca i32, align 4
  store ptr %0, ptr %3, align 8, !tbaa !3
  call void @llvm.lifetime.start.p0(i64 8, ptr %4) #7
  %6 = load ptr, ptr %3, align 8, !tbaa !3
  %7 = getelementptr inbounds nuw %struct.Curl_easy, ptr %6, i32 0, i32 15
  store ptr %7, ptr %4, align 8, !tbaa !225
  %8 = load ptr, ptr %3, align 8, !tbaa !3
  %9 = getelementptr inbounds nuw %struct.Curl_easy, ptr %8, i32 0, i32 15
  %10 = getelementptr inbounds nuw %struct.SingleRequest, ptr %9, i32 0, i32 26
  %11 = load i32, ptr %10, align 1
  %12 = lshr i32 %11, 14
  %13 = and i32 %12, 1
  %14 = icmp ne i32 %13, 0
  br i1 %14, label %22, label %15

15:                                               ; preds = %1
  %16 = load ptr, ptr %4, align 8, !tbaa !225
  %17 = getelementptr inbounds nuw %struct.SingleRequest, ptr %16, i32 0, i32 26
  %18 = load i32, ptr %17, align 1
  %19 = lshr i32 %18, 12
  %20 = and i32 %19, 1
  %21 = icmp ne i32 %20, 0
  br i1 %21, label %22, label %27

22:                                               ; preds = %15, %1
  %23 = load ptr, ptr %4, align 8, !tbaa !225
  %24 = getelementptr inbounds nuw %struct.SingleRequest, ptr %23, i32 0, i32 1
  store i64 -1, ptr %24, align 8, !tbaa !297
  %25 = load ptr, ptr %4, align 8, !tbaa !225
  %26 = getelementptr inbounds nuw %struct.SingleRequest, ptr %25, i32 0, i32 0
  store i64 -1, ptr %26, align 8, !tbaa !295
  br label %106

27:                                               ; preds = %15
  %28 = load ptr, ptr %4, align 8, !tbaa !225
  %29 = getelementptr inbounds nuw %struct.SingleRequest, ptr %28, i32 0, i32 0
  %30 = load i64, ptr %29, align 8, !tbaa !295
  %31 = icmp ne i64 %30, -1
  br i1 %31, label %32, label %105

32:                                               ; preds = %27
  %33 = load ptr, ptr %3, align 8, !tbaa !3
  %34 = getelementptr inbounds nuw %struct.Curl_easy, ptr %33, i32 0, i32 16
  %35 = getelementptr inbounds nuw %struct.UserDefined, ptr %34, i32 0, i32 64
  %36 = load i64, ptr %35, align 8, !tbaa !302
  %37 = icmp ne i64 %36, 0
  br i1 %37, label %38, label %56

38:                                               ; preds = %32
  %39 = load ptr, ptr %4, align 8, !tbaa !225
  %40 = getelementptr inbounds nuw %struct.SingleRequest, ptr %39, i32 0, i32 26
  %41 = load i32, ptr %40, align 1
  %42 = lshr i32 %41, 10
  %43 = and i32 %42, 1
  %44 = icmp ne i32 %43, 0
  br i1 %44, label %56, label %45

45:                                               ; preds = %38
  %46 = load ptr, ptr %4, align 8, !tbaa !225
  %47 = getelementptr inbounds nuw %struct.SingleRequest, ptr %46, i32 0, i32 0
  %48 = load i64, ptr %47, align 8, !tbaa !295
  %49 = load ptr, ptr %3, align 8, !tbaa !3
  %50 = getelementptr inbounds nuw %struct.Curl_easy, ptr %49, i32 0, i32 16
  %51 = getelementptr inbounds nuw %struct.UserDefined, ptr %50, i32 0, i32 64
  %52 = load i64, ptr %51, align 8, !tbaa !302
  %53 = icmp sgt i64 %48, %52
  br i1 %53, label %54, label %56

54:                                               ; preds = %45
  %55 = load ptr, ptr %3, align 8, !tbaa !3
  call void (ptr, ptr, ...) @Curl_failf(ptr noundef %55, ptr noundef @.str.144)
  store i32 63, ptr %2, align 4
  store i32 1, ptr %5, align 4
  br label %107

56:                                               ; preds = %45, %38, %32
  %57 = load ptr, ptr %4, align 8, !tbaa !225
  %58 = getelementptr inbounds nuw %struct.SingleRequest, ptr %57, i32 0, i32 26
  %59 = load i32, ptr %58, align 1
  %60 = lshr i32 %59, 10
  %61 = and i32 %60, 1
  %62 = icmp ne i32 %61, 0
  br i1 %62, label %63, label %95

63:                                               ; preds = %56
  br label %64

64:                                               ; preds = %63
  %65 = load ptr, ptr %3, align 8, !tbaa !3
  %66 = icmp ne ptr %65, null
  br i1 %66, label %67, label %92

67:                                               ; preds = %64
  %68 = load ptr, ptr %3, align 8, !tbaa !3
  %69 = getelementptr inbounds nuw %struct.Curl_easy, ptr %68, i32 0, i32 16
  %70 = getelementptr inbounds nuw %struct.UserDefined, ptr %69, i32 0, i32 119
  %71 = load i64, ptr %70, align 2
  %72 = lshr i64 %71, 31
  %73 = and i64 %72, 1
  %74 = trunc i64 %73 to i32
  %75 = icmp ne i32 %74, 0
  br i1 %75, label %76, label %92

76:                                               ; preds = %67
  %77 = load ptr, ptr %3, align 8, !tbaa !3
  %78 = getelementptr inbounds nuw %struct.Curl_easy, ptr %77, i32 0, i32 21
  %79 = getelementptr inbounds nuw %struct.UrlState, ptr %78, i32 0, i32 50
  %80 = load ptr, ptr %79, align 8, !tbaa !129
  %81 = icmp ne ptr %80, null
  br i1 %81, label %82, label %90

82:                                               ; preds = %76
  %83 = load ptr, ptr %3, align 8, !tbaa !3
  %84 = getelementptr inbounds nuw %struct.Curl_easy, ptr %83, i32 0, i32 21
  %85 = getelementptr inbounds nuw %struct.UrlState, ptr %84, i32 0, i32 50
  %86 = load ptr, ptr %85, align 8, !tbaa !129
  %87 = getelementptr inbounds nuw %struct.curl_trc_feat, ptr %86, i32 0, i32 1
  %88 = load i32, ptr %87, align 8, !tbaa !130
  %89 = icmp sge i32 %88, 1
  br i1 %89, label %90, label %92

90:                                               ; preds = %82, %76
  %91 = load ptr, ptr %3, align 8, !tbaa !3
  call void (ptr, ptr, ...) @Curl_infof(ptr noundef %91, ptr noundef @.str.145)
  br label %92

92:                                               ; preds = %90, %82, %67, %64
  br label %93

93:                                               ; preds = %92
  br label %94

94:                                               ; preds = %93
  br label %95

95:                                               ; preds = %94, %56
  %96 = load ptr, ptr %3, align 8, !tbaa !3
  %97 = load ptr, ptr %4, align 8, !tbaa !225
  %98 = getelementptr inbounds nuw %struct.SingleRequest, ptr %97, i32 0, i32 0
  %99 = load i64, ptr %98, align 8, !tbaa !295
  call void @Curl_pgrsSetDownloadSize(ptr noundef %96, i64 noundef %99)
  %100 = load ptr, ptr %4, align 8, !tbaa !225
  %101 = getelementptr inbounds nuw %struct.SingleRequest, ptr %100, i32 0, i32 0
  %102 = load i64, ptr %101, align 8, !tbaa !295
  %103 = load ptr, ptr %4, align 8, !tbaa !225
  %104 = getelementptr inbounds nuw %struct.SingleRequest, ptr %103, i32 0, i32 1
  store i64 %102, ptr %104, align 8, !tbaa !297
  br label %105

105:                                              ; preds = %95, %27
  br label %106

106:                                              ; preds = %105, %22
  store i32 0, ptr %2, align 4
  store i32 1, ptr %5, align 4
  br label %107

107:                                              ; preds = %106, %54
  call void @llvm.lifetime.end.p0(i64 8, ptr %4) #7
  %108 = load i32, ptr %2, align 4
  ret i32 %108
}